Certificate:
    Data:
        Version: 3 (0x2)
        Serial Number:
            36:40:6d:ae:c0:0c:7f:2f:d7:74:f9:30:c2:71:07:81
        Signature Algorithm: sha256WithRSAEncryption
        Issuer: CN=Easy-RSA CA
        Validity
            Not Before: Sep  5 19:29:24 2025 GMT
            Not After : Dec  9 19:29:24 2027 GMT
        Subject: CN=127.0.0.1
        Subject Public Key Info:
            Public Key Algorithm: rsaEncryption
                RSA Public-Key: (2048 bit)
                Modulus:
                    00:bb:df:3b:fe:d9:d7:1f:2f:31:b4:cb:84:95:6a:
                    87:a8:97:c5:41:f7:97:8e:5f:01:20:4a:2a:a8:fd:
                    af:4b:7d:9f:9d:06:62:91:3a:3b:a2:eb:c5:a0:4e:
                    7d:6b:30:f0:72:19:84:25:03:1c:01:78:3e:ab:81:
                    96:f3:14:1a:90:95:7e:a9:56:3b:cf:ed:48:9a:45:
                    bc:0e:b6:36:b6:7c:0b:28:e1:f2:76:46:bc:b7:f9:
                    d2:08:7b:f4:f2:80:22:07:21:05:95:39:45:15:6d:
                    e4:94:61:78:3b:d1:a1:3c:33:f2:c2:b9:75:1b:a1:
                    7a:4b:a4:65:12:00:00:ba:74:26:53:a6:12:98:1e:
                    e2:af:f1:a0:16:c3:f6:da:ee:dc:74:d9:07:80:da:
                    99:7b:10:f9:3d:a9:3c:e4:45:cc:23:57:6f:4e:4b:
                    ae:ca:31:7e:07:ff:be:4e:53:d3:25:5f:f1:a8:43:
                    14:4e:f7:58:a8:82:72:8a:64:23:3b:18:e7:1c:85:
                    fd:74:87:12:6d:99:59:be:b9:d0:d5:3b:f6:84:71:
                    fa:6c:42:92:e9:79:fe:8b:0a:c2:c8:1c:1d:5e:74:
                    46:3c:a0:ca:93:bc:4e:8b:06:de:11:01:ef:c9:58:
                    89:6a:16:4c:f7:54:b5:8f:69:70:b9:de:fe:da:e3:
                    c7:7b
                Exponent: 65537 (0x10001)
        X509v3 extensions:
            X509v3 Basic Constraints: 
                CA:FALSE
            X509v3 Subject Key Identifier: 
                7D:F1:E6:CC:AB:08:74:3F:7E:D8:EB:C0:E3:82:B4:0B:49:E3:02:E5
            X509v3 Authority Key Identifier: 
                keyid:0C:30:D7:FB:C9:C6:4F:BF:10:B9:94:FC:F8:B3:E7:E6:64:B1:D2:C6
                DirName:/CN=Easy-RSA CA
                serial:30:DD:A9:2D:C1:EC:40:2C:EA:40:1A:3C:DF:57:1E:05:A4:0D:EF:09

            X509v3 Extended Key Usage: 
                TLS Web Server Authentication
            X509v3 Key Usage: 
                Digital Signature, Key Encipherment
            X509v3 Subject Alternative Name: 
                IP Address:127.0.0.1
    Signature Algorithm: sha256WithRSAEncryption
         23:99:f2:3a:18:5b:54:b0:c5:d0:d1:64:2f:81:2c:1c:9e:02:
         e9:5e:5c:d6:34:73:5f:40:b0:ed:9e:78:c9:12:25:c3:d7:62:
         24:d5:02:7e:48:e3:98:85:93:9a:f9:c3:1d:fb:29:f5:5d:3b:
         33:a8:f4:89:a2:db:b0:f0:89:6a:48:94:ac:48:08:3e:4c:78:
         63:63:0d:e6:3b:fe:29:c9:9c:b1:d2:51:d1:ef:53:1a:64:28:
         2a:91:28:d7:38:68:8a:55:a7:62:65:2e:3f:71:70:4c:4e:99:
         b7:0f:2b:b5:b7:75:49:52:c7:f9:8d:b2:44:3c:e7:bb:b8:4f:
         c1:5a:0a:82:7d:2a:ff:6a:26:39:7c:91:6e:c1:91:ce:6b:45:
         34:e0:73:82:29:65:a8:2b:76:2e:77:85:32:1f:f6:b2:ff:24:
         4c:9d:40:cb:7c:18:9c:e5:ca:74:77:e5:05:0b:c7:12:ce:07:
         e6:35:b9:43:ad:64:a9:63:54:4a:51:bf:92:0b:e2:1f:cd:af:
         72:2b:2c:38:72:d2:1b:4a:7f:86:cc:55:87:1f:c9:bf:81:54:
         a1:88:69:67:60:2c:97:72:44:ae:3f:41:70:f8:9b:2a:f9:ef:
         2c:21:98:8e:cd:b7:e4:cd:f4:d8:b6:04:b1:fb:3d:8b:b5:a5:
         52:64:f5:51
-----BEGIN CERTIFICATE-----
MIIDaDCCAlCgAwIBAgIQNkBtrsAMfy/XdPkwwnEHgTANBgkqhkiG9w0BAQsFADAW
MRQwEgYDVQQDDAtFYXN5LVJTQSBDQTAeFw0yNTA5MDUxOTI5MjRaFw0yNzEyMDkx
OTI5MjRaMBQxEjAQBgNVBAMMCTEyNy4wLjAuMTCCASIwDQYJKoZIhvcNAQEBBQAD
ggEPADCCAQoCggEBALvfO/7Z1x8vMbTLhJVqh6iXxUH3l45fASBKKqj9r0t9n50G
YpE6O6LrxaBOfWsw8HIZhCUDHAF4PquBlvMUGpCVfqlWO8/tSJpFvA62NrZ8Cyjh
8nZGvLf50gh79PKAIgchBZU5RRVt5JRheDvRoTwz8sK5dRuhekukZRIAALp0JlOm
Epge4q/xoBbD9tru3HTZB4DamXsQ+T2pPORFzCNXb05Lrsoxfgf/vk5T0yVf8ahD
FE73WKiCcopkIzsY5xyF/XSHEm2ZWb650NU79oRx+mxCkul5/osKwsgcHV50Rjyg
ypO8TosG3hEB78lYiWoWTPdUtY9pcLne/trjx3sCAwEAAaOBszCBsDAJBgNVHRME
AjAAMB0GA1UdDgQWBBR98ebMqwh0P37Y68DjgrQLSeMC5TBRBgNVHSMESjBIgBQM
MNf7ycZPvxC5lPz4s+fmZLHSxqEapBgwFjEUMBIGA1UEAwwLRWFzeS1SU0EgQ0GC
FDDdqS3B7EAs6kAaPN9XHgWkDe8JMBMGA1UdJQQMMAoGCCsGAQUFBwMBMAsGA1Ud
DwQEAwIFoDAPBgNVHREECDAGhwR/AAABMA0GCSqGSIb3DQEBCwUAA4IBAQAjmfI6
GFtUsMXQ0WQvgSwcngLpXlzWNHNfQLDtnnjJEiXD12Ik1QJ+SOOYhZOa+cMd+yn1
XTszqPSJotuw8IlqSJSsSAg+THhjYw3mO/4pyZyx0lHR71MaZCgqkSjXOGiKVadi
ZS4/cXBMTpm3Dyu1t3VJUsf5jbJEPOe7uE/BWgqCfSr/aiY5fJFuwZHOa0U04HOC
KWWoK3Yud4UyH/ay/yRMnUDLfBic5cp0d+UFC8cSzgfmNblDrWSpY1RKUb+SC+If
za9yKyw4ctIbSn+GzFWHH8m/gVShiGlnYCyXckSuP0Fw+Jsq+e8sIZiOzbfkzfTY
tgSx+z2LtaVSZPVR
-----END CERTIFICATE-----
