Certificate:
    Data:
        Version: 3 (0x2)
        Serial Number:
            4b:d7:cb:75:c5:46:b6:9b:04:53:ae:d1:d8:63:e2:69
        Signature Algorithm: sha256WithRSAEncryption
        Issuer: CN=Easy-RSA CA
        Validity
            Not Before: Aug 10 15:28:11 2025 GMT
            Not After : Nov 13 15:28:11 2027 GMT
        Subject: CN=client1
        Subject Public Key Info:
            Public Key Algorithm: rsaEncryption
                RSA Public-Key: (2048 bit)
                Modulus:
                    00:c4:89:4c:46:5e:8f:7f:a2:26:23:14:af:98:c9:
                    e9:4d:c5:3d:71:c7:c3:07:06:51:2d:cf:84:78:91:
                    4d:73:2b:46:f8:17:a5:73:b6:bf:a9:a6:2d:0d:1e:
                    43:f2:5f:90:1a:35:31:3c:c6:8b:b4:21:9d:03:84:
                    da:e5:47:25:5b:97:74:de:93:be:d7:f4:da:7f:dd:
                    0a:20:b4:20:50:db:7d:58:12:65:45:dc:d0:a7:6c:
                    d3:39:1d:22:fe:f0:9e:ab:e9:c2:8d:e9:10:c3:9f:
                    55:85:7e:27:d7:1b:ff:d6:24:0e:a0:05:17:1b:c5:
                    0b:cc:b3:2c:65:ae:f5:37:67:0d:20:7a:de:17:cc:
                    61:00:f0:ff:6f:e3:6b:87:ad:af:c7:bc:9d:87:10:
                    86:c3:90:1f:33:07:ea:b3:84:38:76:3e:3a:d7:56:
                    7d:5c:db:e3:70:f7:85:11:09:74:70:29:b1:85:d1:
                    36:93:03:45:89:e4:a7:f0:d7:f2:53:47:dd:69:15:
                    c2:df:3b:66:92:01:e2:f1:f3:46:0d:75:f9:55:29:
                    80:bc:ad:a9:68:f1:b8:bb:cc:1b:33:18:37:03:97:
                    82:c4:fd:16:69:59:6b:26:c9:20:98:98:d2:28:40:
                    16:26:cc:c6:0a:9a:96:db:3a:6e:ff:5b:b4:e3:13:
                    24:71
                Exponent: 65537 (0x10001)
        X509v3 extensions:
            X509v3 Basic Constraints: 
                CA:FALSE
            X509v3 Subject Key Identifier: 
                8E:31:D0:80:5A:CA:3D:B5:74:A8:10:00:41:38:63:5C:77:BB:79:9A
            X509v3 Authority Key Identifier: 
                keyid:AC:6C:E5:F1:E5:08:BD:ED:40:6A:AA:C8:13:31:70:81:91:CE:B5:CE
                DirName:/CN=Easy-RSA CA
                serial:67:7F:15:73:0B:33:22:31:73:C5:E3:CC:45:32:1F:18:24:68:2E:39

            X509v3 Extended Key Usage: 
                TLS Web Client Authentication
            X509v3 Key Usage: 
                Digital Signature
    Signature Algorithm: sha256WithRSAEncryption
         4f:17:0e:70:a3:45:33:99:d8:2a:f8:10:35:80:37:be:25:83:
         3e:97:79:a0:67:fb:78:d4:a4:d8:ed:ec:95:89:94:6b:30:b6:
         2f:2c:9b:db:19:78:e6:c2:1c:68:2a:66:46:0f:c3:90:7c:6c:
         91:81:ab:6b:ec:a2:be:47:ef:c6:1b:91:36:a8:7f:51:ff:40:
         1a:0d:26:0c:39:82:e6:39:a7:76:c2:44:9f:5b:ea:60:a2:01:
         e9:8e:c1:f4:39:e0:aa:a5:71:7a:b9:21:f5:dc:c8:e9:52:d3:
         9a:b6:d4:5b:f1:57:6f:b0:3a:eb:58:58:f4:33:a3:c4:87:63:
         de:f6:74:ee:c2:3c:74:fd:a2:78:86:97:b4:68:16:8b:2a:99:
         63:8b:1c:fc:a6:93:46:f4:7a:5d:53:d8:54:71:7a:8a:60:26:
         3e:c3:55:ca:39:18:43:43:d5:82:49:78:e6:41:9a:4d:14:93:
         75:4e:40:f7:9d:d1:03:f4:91:74:83:22:79:e9:38:14:7c:05:
         66:e7:e7:16:cb:56:f6:fe:03:20:25:c6:cd:af:96:a5:b6:4d:
         65:6d:56:86:09:e1:4b:57:4f:9d:37:b3:c4:3f:15:f3:cb:de:
         a6:05:92:39:6a:6d:e1:8a:8e:89:46:50:a1:c6:4d:9a:8d:09:
         68:07:68:04
-----BEGIN CERTIFICATE-----
MIIDVTCCAj2gAwIBAgIQS9fLdcVGtpsEU67R2GPiaTANBgkqhkiG9w0BAQsFADAW
MRQwEgYDVQQDDAtFYXN5LVJTQSBDQTAeFw0yNTA4MTAxNTI4MTFaFw0yNzExMTMx
NTI4MTFaMBIxEDAOBgNVBAMMB2NsaWVudDEwggEiMA0GCSqGSIb3DQEBAQUAA4IB
DwAwggEKAoIBAQDEiUxGXo9/oiYjFK+YyelNxT1xx8MHBlEtz4R4kU1zK0b4F6Vz
tr+ppi0NHkPyX5AaNTE8xou0IZ0DhNrlRyVbl3Tek77X9Np/3QogtCBQ231YEmVF
3NCnbNM5HSL+8J6r6cKN6RDDn1WFfifXG//WJA6gBRcbxQvMsyxlrvU3Zw0get4X
zGEA8P9v42uHra/HvJ2HEIbDkB8zB+qzhDh2PjrXVn1c2+Nw94URCXRwKbGF0TaT
A0WJ5Kfw1/JTR91pFcLfO2aSAeLx80YNdflVKYC8ralo8bi7zBszGDcDl4LE/RZp
WWsmySCYmNIoQBYmzMYKmpbbOm7/W7TjEyRxAgMBAAGjgaIwgZ8wCQYDVR0TBAIw
ADAdBgNVHQ4EFgQUjjHQgFrKPbV0qBAAQThjXHe7eZowUQYDVR0jBEowSIAUrGzl
8eUIve1AaqrIEzFwgZHOtc6hGqQYMBYxFDASBgNVBAMMC0Vhc3ktUlNBIENBghRn
fxVzCzMiMXPF48xFMh8YJGguOTATBgNVHSUEDDAKBggrBgEFBQcDAjALBgNVHQ8E
BAMCB4AwDQYJKoZIhvcNAQELBQADggEBAE8XDnCjRTOZ2Cr4EDWAN74lgz6XeaBn
+3jUpNjt7JWJlGswti8sm9sZeObCHGgqZkYPw5B8bJGBq2vsor5H78YbkTaof1H/
QBoNJgw5guY5p3bCRJ9b6mCiAemOwfQ54KqlcXq5IfXcyOlS05q21FvxV2+wOutY
WPQzo8SHY972dO7CPHT9oniGl7RoFosqmWOLHPymk0b0el1T2FRxeopgJj7DVco5
GEND1YJJeOZBmk0Uk3VOQPed0QP0kXSDInnpOBR8BWbn5xbLVvb+AyAlxs2vlqW2
TWVtVoYJ4UtXT503s8Q/FfPL3qYFkjlqbeGKjolGUKHGTZqNCWgHaAQ=
-----END CERTIFICATE-----
