Certificate:
    Data:
        Version: 3 (0x2)
        Serial Number:
            56:99:96:d2:4e:e4:98:28:e2:80:1a:f9:4c:61:8e:57
        Signature Algorithm: sha256WithRSAEncryption
        Issuer: CN=Easy-RSA CA
        Validity
            Not Before: Sep  5 19:29:26 2025 GMT
            Not After : Dec  9 19:29:26 2027 GMT
        Subject: CN=client1
        Subject Public Key Info:
            Public Key Algorithm: rsaEncryption
                RSA Public-Key: (2048 bit)
                Modulus:
                    00:b7:40:e6:65:41:e1:1a:9d:03:34:58:30:79:c2:
                    35:59:d9:45:7d:49:90:72:f7:85:3b:b8:ca:2d:d9:
                    d8:a8:36:7f:0e:9f:fc:6a:68:bd:46:31:27:15:b1:
                    b6:83:6c:54:69:42:4b:ae:cd:55:5b:b1:61:f3:4b:
                    e8:74:5f:2e:65:03:f7:a5:93:7e:22:cf:fb:68:78:
                    0c:27:44:98:09:9f:20:1a:3d:04:f3:46:14:f1:0b:
                    0c:5f:d9:3e:ee:64:34:be:20:d0:b6:c3:98:64:a3:
                    7a:ce:4d:da:de:7e:56:bf:d7:e4:5c:c7:df:67:15:
                    19:80:42:ca:33:f6:7b:43:95:0f:13:23:9f:2c:6a:
                    8b:89:7e:c0:58:95:75:20:fa:7c:55:b1:95:8b:23:
                    bb:ac:2d:69:8c:1f:e8:96:de:2e:61:9f:89:76:6a:
                    67:c0:6a:cc:d8:9a:84:30:5a:f4:89:8f:f5:33:72:
                    7e:7d:e3:7d:d8:ab:ed:0a:96:fa:3d:b3:b4:f9:34:
                    b3:ed:a6:66:e8:e3:33:4b:9c:73:d8:6d:0a:c4:b6:
                    f1:50:58:c2:e5:fd:81:c3:72:3d:fb:d0:a7:b4:f4:
                    32:62:27:39:49:14:f2:0a:21:bf:77:3e:4b:14:55:
                    57:83:af:23:da:72:02:04:c1:2f:61:11:a4:97:06:
                    12:39
                Exponent: 65537 (0x10001)
        X509v3 extensions:
            X509v3 Basic Constraints: 
                CA:FALSE
            X509v3 Subject Key Identifier: 
                0E:DE:89:E5:EA:AF:39:7E:27:AD:D1:ED:C1:A8:BF:5A:85:3A:3D:1E
            X509v3 Authority Key Identifier: 
                keyid:0C:30:D7:FB:C9:C6:4F:BF:10:B9:94:FC:F8:B3:E7:E6:64:B1:D2:C6
                DirName:/CN=Easy-RSA CA
                serial:30:DD:A9:2D:C1:EC:40:2C:EA:40:1A:3C:DF:57:1E:05:A4:0D:EF:09

            X509v3 Extended Key Usage: 
                TLS Web Client Authentication
            X509v3 Key Usage: 
                Digital Signature
    Signature Algorithm: sha256WithRSAEncryption
         72:d0:39:ff:5c:dc:49:18:3d:2e:a6:e2:b9:33:4b:4a:e4:16:
         d9:be:b8:02:9b:bd:19:8d:76:ea:75:e7:81:f9:2b:8e:0a:22:
         4c:be:55:68:18:f3:a2:3e:4c:16:cf:10:db:4c:88:06:5f:f3:
         9c:31:08:22:84:ba:0b:19:18:03:c3:cb:90:82:ac:dc:7e:6e:
         91:4d:0a:cc:98:92:eb:dc:65:9f:a0:10:27:91:4a:40:05:6a:
         af:88:8a:c3:80:fb:d4:6f:e4:aa:d9:49:22:3e:cb:b6:ed:c2:
         2e:00:30:0d:c0:dc:f9:85:d3:7a:36:04:84:fe:bd:4d:6e:80:
         42:d0:ca:ed:ff:00:57:a9:7f:6a:b7:eb:fc:77:fd:72:a0:7e:
         c4:23:e0:32:32:65:db:0f:4a:3a:61:42:e3:00:27:c6:60:ac:
         b3:18:f7:1a:1c:b0:1e:da:16:0f:fe:9c:90:97:87:c3:8d:dc:
         6c:4a:65:39:db:d3:a8:8e:9b:48:6d:62:ae:46:c2:1a:df:81:
         ad:f3:81:b2:36:6d:91:24:69:75:1e:24:4a:c4:eb:26:09:de:
         f7:73:c8:3b:81:4b:f1:a0:2c:b3:0f:5c:4b:c5:9b:f9:e0:a4:
         cc:a2:5c:4e:d6:1b:bb:df:9d:1f:57:25:12:2c:4d:58:24:1d:
         28:b5:cd:31
-----BEGIN CERTIFICATE-----
MIIDVTCCAj2gAwIBAgIQVpmW0k7kmCjigBr5TGGOVzANBgkqhkiG9w0BAQsFADAW
MRQwEgYDVQQDDAtFYXN5LVJTQSBDQTAeFw0yNTA5MDUxOTI5MjZaFw0yNzEyMDkx
OTI5MjZaMBIxEDAOBgNVBAMMB2NsaWVudDEwggEiMA0GCSqGSIb3DQEBAQUAA4IB
DwAwggEKAoIBAQC3QOZlQeEanQM0WDB5wjVZ2UV9SZBy94U7uMot2dioNn8On/xq
aL1GMScVsbaDbFRpQkuuzVVbsWHzS+h0Xy5lA/elk34iz/toeAwnRJgJnyAaPQTz
RhTxCwxf2T7uZDS+INC2w5hko3rOTdrefla/1+Rcx99nFRmAQsoz9ntDlQ8TI58s
aouJfsBYlXUg+nxVsZWLI7usLWmMH+iW3i5hn4l2amfAaszYmoQwWvSJj/Uzcn59
433Yq+0Klvo9s7T5NLPtpmbo4zNLnHPYbQrEtvFQWMLl/YHDcj370Ke09DJiJzlJ
FPIKIb93PksUVVeDryPacgIEwS9hEaSXBhI5AgMBAAGjgaIwgZ8wCQYDVR0TBAIw
ADAdBgNVHQ4EFgQUDt6J5eqvOX4nrdHtwai/WoU6PR4wUQYDVR0jBEowSIAUDDDX
+8nGT78QuZT8+LPn5mSx0sahGqQYMBYxFDASBgNVBAMMC0Vhc3ktUlNBIENBghQw
3aktwexALOpAGjzfVx4FpA3vCTATBgNVHSUEDDAKBggrBgEFBQcDAjALBgNVHQ8E
BAMCB4AwDQYJKoZIhvcNAQELBQADggEBAHLQOf9c3EkYPS6m4rkzS0rkFtm+uAKb
vRmNdup154H5K44KIky+VWgY86I+TBbPENtMiAZf85wxCCKEugsZGAPDy5CCrNx+
bpFNCsyYkuvcZZ+gECeRSkAFaq+IisOA+9Rv5KrZSSI+y7btwi4AMA3A3PmF03o2
BIT+vU1ugELQyu3/AFepf2q36/x3/XKgfsQj4DIyZdsPSjphQuMAJ8ZgrLMY9xoc
sB7aFg/+nJCXh8ON3GxKZTnb06iOm0htYq5Gwhrfga3zgbI2bZEkaXUeJErE6yYJ
3vdzyDuBS/GgLLMPXEvFm/ngpMyiXE7WG7vfnR9XJRIsTVgkHSi1zTE=
-----END CERTIFICATE-----
