Certificate:
    Data:
        Version: 3 (0x2)
        Serial Number:
            68:d4:62:b5:7e:cd:4d:9c:5a:6a:c0:80:8e:1c:ed:44
        Signature Algorithm: sha256WithRSAEncryption
        Issuer: CN=Easy-RSA CA
        Validity
            Not Before: Jun 14 20:52:23 2025 GMT
            Not After : Sep 17 20:52:23 2027 GMT
        Subject: CN=127.0.0.1
        Subject Public Key Info:
            Public Key Algorithm: rsaEncryption
                RSA Public-Key: (2048 bit)
                Modulus:
                    00:c1:74:fc:f1:8b:5a:48:d1:f2:f9:67:f3:9a:b4:
                    cb:eb:77:e2:b4:bb:c5:a9:16:4b:f5:2b:48:41:fe:
                    a0:f3:db:3d:ca:18:fd:20:e4:40:f4:c7:11:c2:08:
                    fa:50:e9:57:ad:90:a0:ec:b8:f0:9e:44:08:14:e6:
                    8e:49:f7:0d:42:24:fb:b7:fb:db:cb:96:ca:33:90:
                    52:9c:86:90:48:08:d2:da:d0:4f:59:66:c6:a9:cb:
                    9c:b4:de:54:6e:72:3f:1a:24:59:e0:95:3b:11:23:
                    18:b1:85:a9:49:ad:28:4c:a4:f9:0b:8d:02:76:b4:
                    b0:cf:fe:ec:86:c6:7b:59:0a:d4:4e:30:6f:cf:b1:
                    f3:4d:33:4c:11:63:99:96:78:6b:01:c1:d2:55:f5:
                    2e:38:d3:39:05:fd:e8:6c:aa:ae:c6:e5:e3:e9:7a:
                    e7:e1:29:81:52:51:d2:2d:24:20:49:29:82:5b:a5:
                    1c:a8:2c:77:bd:9e:8b:0a:c7:19:0b:ed:ad:d7:d7:
                    85:ec:40:4e:d7:53:0e:f5:44:aa:98:a2:f5:e0:c6:
                    74:46:61:06:1f:7d:aa:55:a5:db:d3:b7:b8:9a:98:
                    bf:35:d1:7d:f2:81:fb:a9:a3:a5:e9:89:19:48:13:
                    ac:09:19:aa:8e:dc:35:3b:4d:44:c6:a0:5a:0c:98:
                    bc:67
                Exponent: 65537 (0x10001)
        X509v3 extensions:
            X509v3 Basic Constraints: 
                CA:FALSE
            X509v3 Subject Key Identifier: 
                15:0A:2B:21:82:C3:FD:4D:CB:7A:E3:81:08:68:66:8B:D6:10:44:A8
            X509v3 Authority Key Identifier: 
                keyid:F2:F6:D4:46:2E:D7:D3:40:6E:D3:EB:4C:7C:6D:0E:79:55:2F:95:13
                DirName:/CN=Easy-RSA CA
                serial:7E:C1:A2:36:DD:AF:00:51:CD:F4:10:8D:BF:D1:C0:67:CB:09:2C:7E

            X509v3 Extended Key Usage: 
                TLS Web Server Authentication
            X509v3 Key Usage: 
                Digital Signature, Key Encipherment
            X509v3 Subject Alternative Name: 
                IP Address:127.0.0.1
    Signature Algorithm: sha256WithRSAEncryption
         2f:79:91:ce:fe:cf:b1:8f:c8:6c:d1:a3:00:8c:fa:f8:fb:a9:
         e7:40:00:a3:39:8a:0f:3e:97:71:d8:aa:d0:0f:8a:21:20:3f:
         1e:c8:25:a6:93:97:ba:d8:2a:f8:d6:4b:40:7e:d5:ca:9f:27:
         f6:39:54:7a:4d:ca:3b:0c:9a:2c:bb:d9:02:76:90:aa:e0:13:
         f0:0f:03:b2:10:64:f7:9a:bd:85:9c:69:4a:f6:49:53:5c:ad:
         60:1f:8e:78:f5:b7:82:a1:26:37:ad:2b:29:36:e9:45:9d:f5:
         9f:22:e3:9d:49:be:b3:e3:84:49:2b:b9:79:30:1e:f6:51:59:
         5a:34:3f:0c:73:15:22:e8:4b:8a:95:f5:10:5f:98:81:65:40:
         2c:88:27:20:81:10:38:76:54:6f:04:5c:e2:ee:7a:92:90:7e:
         cc:9d:be:cd:18:40:2b:65:9f:c8:dd:7e:cc:66:64:f2:85:18:
         a9:69:42:33:10:35:f7:6a:2f:99:bd:15:d9:c1:c8:ef:4e:fb:
         e7:83:4e:9c:d0:fb:31:38:7e:e5:b4:d6:5e:ca:00:43:83:26:
         1c:a1:10:50:27:3b:ee:cf:81:a0:cf:f1:67:af:8b:ff:07:a2:
         fc:22:b8:7a:18:0c:16:b7:16:27:7d:37:09:8b:f3:3a:f8:b3:
         d0:9a:8d:0f
-----BEGIN CERTIFICATE-----
MIIDaDCCAlCgAwIBAgIQaNRitX7NTZxaasCAjhztRDANBgkqhkiG9w0BAQsFADAW
MRQwEgYDVQQDDAtFYXN5LVJTQSBDQTAeFw0yNTA2MTQyMDUyMjNaFw0yNzA5MTcy
MDUyMjNaMBQxEjAQBgNVBAMMCTEyNy4wLjAuMTCCASIwDQYJKoZIhvcNAQEBBQAD
ggEPADCCAQoCggEBAMF0/PGLWkjR8vln85q0y+t34rS7xakWS/UrSEH+oPPbPcoY
/SDkQPTHEcII+lDpV62QoOy48J5ECBTmjkn3DUIk+7f728uWyjOQUpyGkEgI0trQ
T1lmxqnLnLTeVG5yPxokWeCVOxEjGLGFqUmtKEyk+QuNAna0sM/+7IbGe1kK1E4w
b8+x800zTBFjmZZ4awHB0lX1LjjTOQX96Gyqrsbl4+l65+EpgVJR0i0kIEkpglul
HKgsd72eiwrHGQvtrdfXhexATtdTDvVEqpii9eDGdEZhBh99qlWl29O3uJqYvzXR
ffKB+6mjpemJGUgTrAkZqo7cNTtNRMagWgyYvGcCAwEAAaOBszCBsDAJBgNVHRME
AjAAMB0GA1UdDgQWBBQVCishgsP9Tct644EIaGaL1hBEqDBRBgNVHSMESjBIgBTy
9tRGLtfTQG7T60x8bQ55VS+VE6EapBgwFjEUMBIGA1UEAwwLRWFzeS1SU0EgQ0GC
FH7BojbdrwBRzfQQjb/RwGfLCSx+MBMGA1UdJQQMMAoGCCsGAQUFBwMBMAsGA1Ud
DwQEAwIFoDAPBgNVHREECDAGhwR/AAABMA0GCSqGSIb3DQEBCwUAA4IBAQAveZHO
/s+xj8hs0aMAjPr4+6nnQACjOYoPPpdx2KrQD4ohID8eyCWmk5e62Cr41ktAftXK
nyf2OVR6Tco7DJosu9kCdpCq4BPwDwOyEGT3mr2FnGlK9klTXK1gH4549beCoSY3
rSspNulFnfWfIuOdSb6z44RJK7l5MB72UVlaND8McxUi6EuKlfUQX5iBZUAsiCcg
gRA4dlRvBFzi7nqSkH7Mnb7NGEArZZ/I3X7MZmTyhRipaUIzEDX3ai+ZvRXZwcjv
Tvvng06c0PsxOH7ltNZeygBDgyYcoRBQJzvuz4Ggz/Fnr4v/B6L8Irh6GAwWtxYn
fTcJi/M6+LPQmo0P
-----END CERTIFICATE-----
