Certificate:
    Data:
        Version: 3 (0x2)
        Serial Number:
            6e:25:53:4b:b4:35:1c:ef:00:51:47:f6:15:90:14:cd
        Signature Algorithm: sha256WithRSAEncryption
        Issuer: CN=Easy-RSA CA
        Validity
            Not Before: Aug  9 21:09:20 2025 GMT
            Not After : Nov 12 21:09:20 2027 GMT
        Subject: CN=client1
        Subject Public Key Info:
            Public Key Algorithm: rsaEncryption
                RSA Public-Key: (2048 bit)
                Modulus:
                    00:a2:43:bb:6d:46:fb:c5:1f:c0:66:85:8c:d4:de:
                    73:25:e0:26:fb:17:82:40:46:46:7a:60:41:28:a2:
                    2d:1a:13:ce:38:03:c0:5b:9e:2e:18:66:02:c9:b7:
                    ef:be:c4:45:d1:d4:e2:d2:dd:6f:84:4c:92:ae:78:
                    eb:d3:cf:48:6e:b9:cc:e9:38:d2:98:08:69:c5:a5:
                    ed:59:45:af:cc:17:f5:ca:0c:d6:57:d0:d4:65:87:
                    11:f5:46:e5:1e:de:d8:85:e7:4b:a2:d2:5d:39:91:
                    a5:0d:05:54:50:40:90:5f:d0:cf:97:66:2c:b3:2e:
                    39:bc:6e:a2:d3:1d:7b:21:3f:aa:5e:ab:67:3d:a8:
                    20:94:8e:5f:49:bb:6e:b0:55:a9:7b:af:86:f0:fa:
                    21:b8:f1:0b:c1:10:49:ec:5b:60:32:a5:c2:d8:be:
                    96:4f:45:27:72:42:0b:1d:8c:20:54:60:d6:cc:80:
                    eb:f1:73:84:12:ed:4c:65:17:e3:54:2e:5b:51:e1:
                    74:79:bb:d6:72:80:ab:5a:f0:6f:5d:5d:22:cd:6f:
                    8e:1b:7b:61:6f:9e:fa:54:59:43:65:a3:82:85:d3:
                    74:09:51:7b:2a:d1:58:f8:c3:dc:63:17:e2:00:8c:
                    fd:6c:ee:dc:04:bb:e9:5e:fa:9f:ae:7a:73:f0:bb:
                    ea:4d
                Exponent: 65537 (0x10001)
        X509v3 extensions:
            X509v3 Basic Constraints: 
                CA:FALSE
            X509v3 Subject Key Identifier: 
                0B:A9:A5:32:CD:E0:2F:BB:36:BD:BC:20:26:A5:F3:92:4A:82:F1:A8
            X509v3 Authority Key Identifier: 
                keyid:B8:11:58:99:CE:EB:E9:1A:E0:D9:CC:30:E3:CF:4A:78:40:4B:D6:8F
                DirName:/CN=Easy-RSA CA
                serial:76:01:FC:67:AD:D4:6C:E3:E7:5D:D1:CD:52:53:1F:EF:A8:04:4C:7E

            X509v3 Extended Key Usage: 
                TLS Web Client Authentication
            X509v3 Key Usage: 
                Digital Signature
    Signature Algorithm: sha256WithRSAEncryption
         bc:74:47:89:db:11:d0:f4:8d:80:d9:17:eb:0f:a8:0b:ea:53:
         b1:71:70:c4:4c:bf:aa:4e:5a:80:bb:72:16:0f:3c:b2:8a:7d:
         f5:63:76:2e:2d:88:d7:a0:4b:ff:6e:ea:9b:f8:bc:27:4a:e1:
         60:09:5d:11:28:a7:86:3e:47:42:f8:af:b1:27:d6:05:c1:f9:
         ba:f5:39:cd:51:2b:de:88:72:80:4f:9a:59:3e:c2:de:3c:22:
         5a:f5:b1:2f:15:51:d2:7a:9d:a4:8e:91:a0:fa:bf:82:fa:c0:
         e1:87:e8:5a:c4:70:3b:68:a3:92:1e:47:e6:b8:92:ef:2c:44:
         d2:59:39:ee:7e:22:33:e9:cd:54:16:99:e0:3e:88:35:da:71:
         e6:6c:7e:6a:da:6a:db:55:36:34:7d:d9:02:c3:af:fd:6b:5b:
         49:7e:f5:d3:f1:f0:4a:8a:de:6b:2d:61:59:3a:df:18:4a:08:
         be:93:df:71:58:ae:0d:fa:62:d9:d5:f0:9a:bf:66:38:2e:7d:
         4b:b8:6c:19:d4:b4:bd:66:c7:7a:41:56:01:9f:6c:7c:29:39:
         47:9f:90:98:22:3d:62:ce:24:21:56:fd:54:ac:7d:63:4a:6c:
         a1:76:c3:21:11:8b:4d:50:35:a1:77:85:1a:d2:cc:de:e9:8f:
         48:3b:4c:79
-----BEGIN CERTIFICATE-----
MIIDVTCCAj2gAwIBAgIQbiVTS7Q1HO8AUUf2FZAUzTANBgkqhkiG9w0BAQsFADAW
MRQwEgYDVQQDDAtFYXN5LVJTQSBDQTAeFw0yNTA4MDkyMTA5MjBaFw0yNzExMTIy
MTA5MjBaMBIxEDAOBgNVBAMMB2NsaWVudDEwggEiMA0GCSqGSIb3DQEBAQUAA4IB
DwAwggEKAoIBAQCiQ7ttRvvFH8BmhYzU3nMl4Cb7F4JARkZ6YEEooi0aE844A8Bb
ni4YZgLJt+++xEXR1OLS3W+ETJKueOvTz0huuczpONKYCGnFpe1ZRa/MF/XKDNZX
0NRlhxH1RuUe3tiF50ui0l05kaUNBVRQQJBf0M+XZiyzLjm8bqLTHXshP6peq2c9
qCCUjl9Ju26wVal7r4bw+iG48QvBEEnsW2AypcLYvpZPRSdyQgsdjCBUYNbMgOvx
c4QS7UxlF+NULltR4XR5u9ZygKta8G9dXSLNb44be2FvnvpUWUNlo4KF03QJUXsq
0Vj4w9xjF+IAjP1s7twEu+le+p+uenPwu+pNAgMBAAGjgaIwgZ8wCQYDVR0TBAIw
ADAdBgNVHQ4EFgQUC6mlMs3gL7s2vbwgJqXzkkqC8agwUQYDVR0jBEowSIAUuBFY
mc7r6Rrg2cww489KeEBL1o+hGqQYMBYxFDASBgNVBAMMC0Vhc3ktUlNBIENBghR2
AfxnrdRs4+dd0c1SUx/vqARMfjATBgNVHSUEDDAKBggrBgEFBQcDAjALBgNVHQ8E
BAMCB4AwDQYJKoZIhvcNAQELBQADggEBALx0R4nbEdD0jYDZF+sPqAvqU7FxcMRM
v6pOWoC7chYPPLKKffVjdi4tiNegS/9u6pv4vCdK4WAJXREop4Y+R0L4r7En1gXB
+br1Oc1RK96IcoBPmlk+wt48Ilr1sS8VUdJ6naSOkaD6v4L6wOGH6FrEcDtoo5Ie
R+a4ku8sRNJZOe5+IjPpzVQWmeA+iDXaceZsfmraattVNjR92QLDr/1rW0l+9dPx
8EqK3mstYVk63xhKCL6T33FYrg36YtnV8Jq/ZjgufUu4bBnUtL1mx3pBVgGfbHwp
OUefkJgiPWLOJCFW/VSsfWNKbKF2wyERi01QNaF3hRrSzN7pj0g7THk=
-----END CERTIFICATE-----
