Certificate:
    Data:
        Version: 3 (0x2)
        Serial Number:
            88:92:01:9d:79:d1:15:66:67:01:dd:fa:cb:29:20:cc
        Signature Algorithm: sha256WithRSAEncryption
        Issuer: CN=Easy-RSA CA
        Validity
            Not Before: Aug  9 21:09:19 2025 GMT
            Not After : Nov 12 21:09:19 2027 GMT
        Subject: CN=127.0.0.1
        Subject Public Key Info:
            Public Key Algorithm: rsaEncryption
                RSA Public-Key: (2048 bit)
                Modulus:
                    00:ba:4c:7c:82:94:97:f8:51:5a:56:e5:2d:a5:5e:
                    03:ab:56:7f:eb:5f:26:68:a9:22:7a:86:f8:92:3c:
                    be:3f:e2:8c:83:37:20:f9:0b:d7:5f:99:21:ee:03:
                    3b:43:b4:04:d2:73:e2:33:c2:3f:85:cc:b1:bd:38:
                    d9:dc:0e:e4:5f:c7:eb:ef:6d:bd:3d:9a:af:fa:c5:
                    09:22:9b:ed:67:d7:f5:f4:e8:e2:da:1e:ee:c0:87:
                    f4:10:74:6a:40:e7:05:53:ea:49:60:0c:62:30:c9:
                    45:41:cb:aa:11:dc:d2:c8:23:8d:8c:7e:fc:6b:92:
                    75:50:9a:88:83:c1:77:84:3c:8e:ce:92:b3:51:39:
                    9d:5d:58:32:1d:b9:91:28:23:30:2f:6d:db:f3:cf:
                    62:a0:f8:b5:eb:dc:4a:da:68:06:76:2b:89:dc:98:
                    cc:eb:99:37:1a:e5:e9:0c:79:95:4b:98:85:a0:e6:
                    34:4f:39:d3:e6:a1:64:08:71:19:97:eb:84:6c:1c:
                    75:b7:41:3a:40:c0:69:2b:62:50:16:60:9a:b4:71:
                    6d:47:3f:9e:13:c7:1c:bb:ec:ae:34:d9:7d:1a:cd:
                    d7:57:d3:a0:72:8a:31:02:46:61:50:c0:d2:77:5a:
                    ad:f3:3e:3e:6c:5f:ee:74:30:8d:c9:d3:98:b4:1c:
                    47:41
                Exponent: 65537 (0x10001)
        X509v3 extensions:
            X509v3 Basic Constraints: 
                CA:FALSE
            X509v3 Subject Key Identifier: 
                D1:E7:73:27:28:E3:8F:73:84:4A:53:0E:99:D2:6A:8E:F9:01:10:DA
            X509v3 Authority Key Identifier: 
                keyid:B8:11:58:99:CE:EB:E9:1A:E0:D9:CC:30:E3:CF:4A:78:40:4B:D6:8F
                DirName:/CN=Easy-RSA CA
                serial:76:01:FC:67:AD:D4:6C:E3:E7:5D:D1:CD:52:53:1F:EF:A8:04:4C:7E

            X509v3 Extended Key Usage: 
                TLS Web Server Authentication
            X509v3 Key Usage: 
                Digital Signature, Key Encipherment
            X509v3 Subject Alternative Name: 
                IP Address:127.0.0.1
    Signature Algorithm: sha256WithRSAEncryption
         7a:fe:a6:28:c0:8e:7d:b4:cd:ed:ef:07:03:59:e4:3a:4e:bc:
         2d:92:19:0e:e8:a3:2b:ca:1f:42:9b:13:a4:10:aa:a4:bd:6b:
         96:6e:7f:ec:fc:c9:4b:73:c2:8e:c1:3c:de:da:6e:61:67:31:
         6b:ab:a7:06:13:f9:33:d9:42:05:05:9b:c0:27:1d:eb:f6:99:
         6e:41:57:f0:03:d0:a4:93:52:09:50:db:ce:83:72:dd:a5:8a:
         88:4a:87:0f:73:41:b0:3c:69:4c:45:76:ae:4d:50:4d:79:7e:
         9c:9e:25:8e:29:2b:13:21:5e:3c:96:9b:27:50:d1:2e:65:a3:
         ab:39:4b:ca:a0:e4:21:fc:87:3f:d5:fc:bb:03:7a:7d:78:c1:
         67:ab:fe:5d:56:a4:30:85:0f:5b:6c:78:42:6c:c2:40:d9:7d:
         7e:53:28:ef:f7:28:78:b0:c1:60:eb:8f:7a:a9:39:64:f3:93:
         8d:2f:92:ac:be:88:5e:3c:91:77:43:50:8e:7f:64:07:88:18:
         31:21:0c:c0:2f:7a:e1:6a:30:c0:ef:4a:bb:f8:a2:0c:66:ed:
         8f:bf:29:85:7f:d6:c9:a8:a9:a7:f9:e2:c1:9f:d6:00:03:53:
         bd:d6:31:ff:bd:f4:f4:26:f9:2d:e8:bd:72:f3:b1:3a:d8:6c:
         7a:69:c6:27
-----BEGIN CERTIFICATE-----
MIIDaTCCAlGgAwIBAgIRAIiSAZ150RVmZwHd+sspIMwwDQYJKoZIhvcNAQELBQAw
FjEUMBIGA1UEAwwLRWFzeS1SU0EgQ0EwHhcNMjUwODA5MjEwOTE5WhcNMjcxMTEy
MjEwOTE5WjAUMRIwEAYDVQQDDAkxMjcuMC4wLjEwggEiMA0GCSqGSIb3DQEBAQUA
A4IBDwAwggEKAoIBAQC6THyClJf4UVpW5S2lXgOrVn/rXyZoqSJ6hviSPL4/4oyD
NyD5C9dfmSHuAztDtATSc+Izwj+FzLG9ONncDuRfx+vvbb09mq/6xQkim+1n1/X0
6OLaHu7Ah/QQdGpA5wVT6klgDGIwyUVBy6oR3NLII42MfvxrknVQmoiDwXeEPI7O
krNROZ1dWDIduZEoIzAvbdvzz2Kg+LXr3EraaAZ2K4ncmMzrmTca5ekMeZVLmIWg
5jRPOdPmoWQIcRmX64RsHHW3QTpAwGkrYlAWYJq0cW1HP54Txxy77K402X0azddX
06ByijECRmFQwNJ3Wq3zPj5sX+50MI3J05i0HEdBAgMBAAGjgbMwgbAwCQYDVR0T
BAIwADAdBgNVHQ4EFgQU0edzJyjjj3OESlMOmdJqjvkBENowUQYDVR0jBEowSIAU
uBFYmc7r6Rrg2cww489KeEBL1o+hGqQYMBYxFDASBgNVBAMMC0Vhc3ktUlNBIENB
ghR2AfxnrdRs4+dd0c1SUx/vqARMfjATBgNVHSUEDDAKBggrBgEFBQcDATALBgNV
HQ8EBAMCBaAwDwYDVR0RBAgwBocEfwAAATANBgkqhkiG9w0BAQsFAAOCAQEAev6m
KMCOfbTN7e8HA1nkOk68LZIZDuijK8ofQpsTpBCqpL1rlm5/7PzJS3PCjsE83tpu
YWcxa6unBhP5M9lCBQWbwCcd6/aZbkFX8APQpJNSCVDbzoNy3aWKiEqHD3NBsDxp
TEV2rk1QTXl+nJ4ljikrEyFePJabJ1DRLmWjqzlLyqDkIfyHP9X8uwN6fXjBZ6v+
XVakMIUPW2x4QmzCQNl9flMo7/coeLDBYOuPeqk5ZPOTjS+SrL6IXjyRd0NQjn9k
B4gYMSEMwC964WowwO9Ku/iiDGbtj78phX/Wyaipp/niwZ/WAANTvdYx/7309Cb5
Lei9cvOxOthsemnGJw==
-----END CERTIFICATE-----
