Certificate:
    Data:
        Version: 3 (0x2)
        Serial Number:
            a6:a0:92:59:e8:17:ae:ef:2e:df:2b:24:6b:c4:57:85
        Signature Algorithm: sha256WithRSAEncryption
        Issuer: CN=Easy-RSA CA
        Validity
            Not Before: Aug  9 21:09:21 2025 GMT
            Not After : Nov 12 21:09:21 2027 GMT
        Subject: CN=client2
        Subject Public Key Info:
            Public Key Algorithm: rsaEncryption
                RSA Public-Key: (2048 bit)
                Modulus:
                    00:aa:c2:4f:ec:d4:80:aa:a9:91:01:47:43:55:9b:
                    1e:e6:2f:19:99:39:83:e7:26:21:dd:0b:e1:7b:4c:
                    2d:f6:8a:66:93:80:58:cd:ad:73:f4:9c:b8:b2:7c:
                    c7:9c:7b:b7:60:a3:f4:81:de:0a:c9:a2:6d:96:af:
                    c9:d6:29:9b:83:5e:fa:25:86:11:d6:4d:c0:28:07:
                    31:bc:7d:ab:fb:22:e5:56:05:08:25:8b:41:6a:bc:
                    16:29:92:20:7e:fc:f7:0e:4f:99:bc:52:fb:c0:f5:
                    4f:06:fe:3a:e1:0a:40:a0:70:94:1a:ed:85:e9:c3:
                    6e:7d:33:f9:e8:91:6f:76:36:09:82:8c:3f:6c:98:
                    8f:88:b4:03:73:af:35:d7:1a:64:7a:cb:ed:d5:ed:
                    59:24:b5:f6:86:89:0a:63:39:2e:ca:45:1a:85:09:
                    0e:0b:21:55:9e:af:67:29:18:c4:2b:3b:c1:c8:97:
                    40:ac:11:cd:4f:d7:fc:55:0a:78:9b:29:4d:c8:0d:
                    eb:49:65:6f:46:5b:74:7b:11:e4:9a:b0:6b:5e:95:
                    73:a5:7d:7a:ab:a6:66:95:11:d3:47:49:b4:56:9f:
                    59:cf:8b:f7:02:3f:1f:3e:8a:52:fb:b2:c9:46:e3:
                    60:be:11:6a:f6:8d:d3:24:3e:fc:d4:7e:12:6b:14:
                    52:93
                Exponent: 65537 (0x10001)
        X509v3 extensions:
            X509v3 Basic Constraints: 
                CA:FALSE
            X509v3 Subject Key Identifier: 
                C5:A1:47:C4:0F:97:C2:25:8B:23:37:B4:E2:DB:30:FC:B5:0A:47:2E
            X509v3 Authority Key Identifier: 
                keyid:B8:11:58:99:CE:EB:E9:1A:E0:D9:CC:30:E3:CF:4A:78:40:4B:D6:8F
                DirName:/CN=Easy-RSA CA
                serial:76:01:FC:67:AD:D4:6C:E3:E7:5D:D1:CD:52:53:1F:EF:A8:04:4C:7E

            X509v3 Extended Key Usage: 
                TLS Web Client Authentication
            X509v3 Key Usage: 
                Digital Signature
    Signature Algorithm: sha256WithRSAEncryption
         42:cb:94:a3:0f:e7:78:41:da:43:6f:1d:34:2f:96:6b:08:45:
         ab:88:b1:fc:5d:95:9a:2c:a3:51:0f:20:67:fc:65:da:69:c6:
         a9:c4:49:f2:de:bc:62:e8:d8:ba:38:a4:cf:b8:87:fd:87:67:
         53:65:e2:6e:dd:d6:aa:a7:04:70:7e:29:f2:b0:24:b5:72:86:
         43:1c:72:dc:59:c4:c5:9d:09:22:d6:03:11:4e:f8:2d:bf:8c:
         cd:fa:4e:ae:ff:3b:86:dd:46:13:7f:4b:52:3c:10:f2:79:b2:
         0f:4a:eb:4a:41:8d:a0:41:a5:0f:cf:ec:bb:67:2c:d2:40:79:
         a0:9c:75:21:64:c4:16:ec:89:00:9f:6b:c2:44:41:53:29:46:
         36:10:11:48:2e:bf:96:91:e1:0b:d6:9a:99:d4:af:c4:56:f8:
         9b:ef:67:6d:9c:ab:7b:33:c5:7d:82:87:f0:ac:3f:79:5c:19:
         47:0d:75:0f:73:28:09:52:f7:66:62:a6:c8:a7:29:75:20:c7:
         ff:00:bd:1a:fa:5b:39:7f:d7:3b:aa:9f:96:b8:a9:ad:2f:a9:
         f3:79:70:0d:4b:a8:62:8e:8d:c6:6a:54:4a:29:c9:18:89:9c:
         e2:40:26:b7:60:11:20:d1:e5:77:db:c8:1b:00:2d:0f:4f:dc:
         a5:60:82:fb
-----BEGIN CERTIFICATE-----
MIIDVjCCAj6gAwIBAgIRAKagklnoF67vLt8rJGvEV4UwDQYJKoZIhvcNAQELBQAw
FjEUMBIGA1UEAwwLRWFzeS1SU0EgQ0EwHhcNMjUwODA5MjEwOTIxWhcNMjcxMTEy
MjEwOTIxWjASMRAwDgYDVQQDDAdjbGllbnQyMIIBIjANBgkqhkiG9w0BAQEFAAOC
AQ8AMIIBCgKCAQEAqsJP7NSAqqmRAUdDVZse5i8ZmTmD5yYh3Qvhe0wt9opmk4BY
za1z9Jy4snzHnHu3YKP0gd4KyaJtlq/J1imbg176JYYR1k3AKAcxvH2r+yLlVgUI
JYtBarwWKZIgfvz3Dk+ZvFL7wPVPBv464QpAoHCUGu2F6cNufTP56JFvdjYJgow/
bJiPiLQDc6811xpkesvt1e1ZJLX2hokKYzkuykUahQkOCyFVnq9nKRjEKzvByJdA
rBHNT9f8VQp4mylNyA3rSWVvRlt0exHkmrBrXpVzpX16q6ZmlRHTR0m0Vp9Zz4v3
Aj8fPopS+7LJRuNgvhFq9o3TJD781H4SaxRSkwIDAQABo4GiMIGfMAkGA1UdEwQC
MAAwHQYDVR0OBBYEFMWhR8QPl8IliyM3tOLbMPy1CkcuMFEGA1UdIwRKMEiAFLgR
WJnO6+ka4NnMMOPPSnhAS9aPoRqkGDAWMRQwEgYDVQQDDAtFYXN5LVJTQSBDQYIU
dgH8Z63UbOPnXdHNUlMf76gETH4wEwYDVR0lBAwwCgYIKwYBBQUHAwIwCwYDVR0P
BAQDAgeAMA0GCSqGSIb3DQEBCwUAA4IBAQBCy5SjD+d4QdpDbx00L5ZrCEWriLH8
XZWaLKNRDyBn/GXaacapxEny3rxi6Ni6OKTPuIf9h2dTZeJu3daqpwRwfinysCS1
coZDHHLcWcTFnQki1gMRTvgtv4zN+k6u/zuG3UYTf0tSPBDyebIPSutKQY2gQaUP
z+y7ZyzSQHmgnHUhZMQW7IkAn2vCREFTKUY2EBFILr+WkeEL1pqZ1K/EVvib72dt
nKt7M8V9gofwrD95XBlHDXUPcygJUvdmYqbIpyl1IMf/AL0a+ls5f9c7qp+WuKmt
L6nzeXANS6hijo3GalRKKckYiZziQCa3YBEg0eV328gbAC0PT9ylYIL7
-----END CERTIFICATE-----
