Certificate:
    Data:
        Version: 3 (0x2)
        Serial Number:
            b9:0f:7f:9d:81:ad:aa:a9:c4:09:80:2e:e3:90:74:2e
        Signature Algorithm: sha256WithRSAEncryption
        Issuer: CN=Easy-RSA CA
        Validity
            Not Before: Aug 10 15:28:10 2025 GMT
            Not After : Nov 13 15:28:10 2027 GMT
        Subject: CN=127.0.0.1
        Subject Public Key Info:
            Public Key Algorithm: rsaEncryption
                RSA Public-Key: (2048 bit)
                Modulus:
                    00:d3:21:10:ac:af:f9:6b:0e:c5:28:87:36:aa:ea:
                    dc:12:37:f6:08:4f:8f:06:91:91:ba:56:73:40:c3:
                    7d:64:a8:f4:73:a9:9e:fc:fc:18:b8:4f:6d:67:7e:
                    95:b5:38:bc:9f:e1:e8:f9:0f:e1:e6:55:91:2f:48:
                    2b:fe:ad:40:81:e7:51:15:f8:5b:8b:94:35:a1:d2:
                    2d:e3:4d:8f:5a:8c:1f:7c:fa:99:6b:22:30:06:7f:
                    12:8d:5c:c5:63:25:05:3c:9e:7f:36:c0:2f:9d:fa:
                    af:89:d1:4f:de:cb:a5:3a:b1:52:4a:c4:6a:12:61:
                    ee:93:36:9a:2c:1b:28:88:b9:f5:7a:41:c6:b1:d7:
                    c8:88:34:3c:af:05:ed:68:14:29:74:64:41:59:10:
                    53:75:88:b6:a1:0e:d2:6d:02:13:06:23:6f:02:5a:
                    74:34:e2:82:52:51:bd:52:43:be:3b:2b:60:54:8e:
                    72:f8:7f:83:b2:40:6c:1c:52:01:92:d7:b4:9f:28:
                    72:6e:38:2e:4d:e2:b0:d8:47:47:a7:08:27:c8:14:
                    13:f4:d2:8b:58:44:5d:ea:3d:07:9f:6b:f2:2c:33:
                    50:31:bc:68:f4:ed:0b:f2:fb:81:df:fa:65:cf:fb:
                    4a:ed:0d:ac:2f:45:77:d9:79:7e:7a:90:3d:98:e6:
                    b3:25
                Exponent: 65537 (0x10001)
        X509v3 extensions:
            X509v3 Basic Constraints: 
                CA:FALSE
            X509v3 Subject Key Identifier: 
                B9:46:20:19:A2:11:A5:5D:39:1D:C4:B8:9B:B2:FE:89:D9:73:75:1B
            X509v3 Authority Key Identifier: 
                keyid:AC:6C:E5:F1:E5:08:BD:ED:40:6A:AA:C8:13:31:70:81:91:CE:B5:CE
                DirName:/CN=Easy-RSA CA
                serial:67:7F:15:73:0B:33:22:31:73:C5:E3:CC:45:32:1F:18:24:68:2E:39

            X509v3 Extended Key Usage: 
                TLS Web Server Authentication
            X509v3 Key Usage: 
                Digital Signature, Key Encipherment
            X509v3 Subject Alternative Name: 
                IP Address:127.0.0.1
    Signature Algorithm: sha256WithRSAEncryption
         a7:1d:7f:08:96:7a:0b:29:25:98:40:9b:71:11:26:31:fb:cb:
         57:ea:b4:ae:91:37:31:31:d5:4c:a1:44:32:22:59:81:e8:23:
         1d:82:57:80:96:af:e0:9f:bd:61:d9:a4:27:a6:ac:c8:3f:44:
         97:3b:6b:3b:b1:72:2d:d1:50:3d:26:3a:de:ad:be:34:c0:04:
         dd:dc:1c:e4:ed:81:4b:b1:c2:bd:2d:fd:ef:fd:35:be:0a:b4:
         86:e8:9e:2d:72:df:35:29:66:a5:c6:2b:36:6b:b1:a0:fd:1d:
         b0:29:88:a1:c2:a9:20:a4:15:9f:ba:70:2d:15:8d:55:a9:53:
         bb:5e:61:76:43:2d:23:46:87:8e:22:3a:05:ac:d0:de:15:8a:
         0e:10:e4:62:8f:32:fc:18:39:f5:76:3e:12:70:29:72:7b:0f:
         72:e6:b9:b6:5c:f9:c0:f5:96:7e:70:72:96:00:d2:cd:01:da:
         73:08:f9:d6:f5:f7:c5:09:cb:a2:5a:12:cf:2c:69:76:a2:cb:
         e1:ea:0b:1d:d8:49:e2:df:1a:b7:d2:18:48:39:bd:49:89:30:
         59:16:21:35:81:25:83:52:9c:aa:2d:2e:60:b2:04:b2:bc:2f:
         4a:b1:85:2a:6f:9b:08:16:7d:ed:1b:2b:1c:40:c9:07:a7:f9:
         88:d5:a2:72
-----BEGIN CERTIFICATE-----
MIIDaTCCAlGgAwIBAgIRALkPf52BraqpxAmALuOQdC4wDQYJKoZIhvcNAQELBQAw
FjEUMBIGA1UEAwwLRWFzeS1SU0EgQ0EwHhcNMjUwODEwMTUyODEwWhcNMjcxMTEz
MTUyODEwWjAUMRIwEAYDVQQDDAkxMjcuMC4wLjEwggEiMA0GCSqGSIb3DQEBAQUA
A4IBDwAwggEKAoIBAQDTIRCsr/lrDsUohzaq6twSN/YIT48GkZG6VnNAw31kqPRz
qZ78/Bi4T21nfpW1OLyf4ej5D+HmVZEvSCv+rUCB51EV+FuLlDWh0i3jTY9ajB98
+plrIjAGfxKNXMVjJQU8nn82wC+d+q+J0U/ey6U6sVJKxGoSYe6TNposGyiIufV6
Qcax18iINDyvBe1oFCl0ZEFZEFN1iLahDtJtAhMGI28CWnQ04oJSUb1SQ747K2BU
jnL4f4OyQGwcUgGS17SfKHJuOC5N4rDYR0enCCfIFBP00otYRF3qPQefa/IsM1Ax
vGj07Qvy+4Hf+mXP+0rtDawvRXfZeX56kD2Y5rMlAgMBAAGjgbMwgbAwCQYDVR0T
BAIwADAdBgNVHQ4EFgQUuUYgGaIRpV05HcS4m7L+idlzdRswUQYDVR0jBEowSIAU
rGzl8eUIve1AaqrIEzFwgZHOtc6hGqQYMBYxFDASBgNVBAMMC0Vhc3ktUlNBIENB
ghRnfxVzCzMiMXPF48xFMh8YJGguOTATBgNVHSUEDDAKBggrBgEFBQcDATALBgNV
HQ8EBAMCBaAwDwYDVR0RBAgwBocEfwAAATANBgkqhkiG9w0BAQsFAAOCAQEApx1/
CJZ6CyklmECbcREmMfvLV+q0rpE3MTHVTKFEMiJZgegjHYJXgJav4J+9YdmkJ6as
yD9ElztrO7FyLdFQPSY63q2+NMAE3dwc5O2BS7HCvS397/01vgq0huieLXLfNSlm
pcYrNmuxoP0dsCmIocKpIKQVn7pwLRWNValTu15hdkMtI0aHjiI6BazQ3hWKDhDk
Yo8y/Bg59XY+EnApcnsPcua5tlz5wPWWfnBylgDSzQHacwj51vX3xQnLoloSzyxp
dqLL4eoLHdhJ4t8at9IYSDm9SYkwWRYhNYElg1Kcqi0uYLIEsrwvSrGFKm+bCBZ9
7RsrHEDJB6f5iNWicg==
-----END CERTIFICATE-----
