Certificate:
    Data:
        Version: 3 (0x2)
        Serial Number:
            1f:7d:7d:df:b0:90:bc:2d:ee:b5:70:48:57:f7:b1:9b
        Signature Algorithm: sha256WithRSAEncryption
        Issuer: CN=Easy-RSA CA
        Validity
            Not Before: Jun 14 20:52:30 2025 GMT
            Not After : Sep 17 20:52:30 2027 GMT
        Subject: CN=player1
        Subject Public Key Info:
            Public Key Algorithm: rsaEncryption
                RSA Public-Key: (2048 bit)
                Modulus:
                    00:9e:37:26:b6:6a:b3:0b:4a:2d:75:22:61:2d:b1:
                    7d:c9:f3:71:52:9a:2a:36:2c:4b:d0:e6:e2:5e:f7:
                    ff:6d:d2:b7:df:19:a9:53:48:ea:8d:b1:db:37:0d:
                    91:ff:00:4a:95:5c:9d:4e:cb:1f:a5:40:0d:16:e3:
                    03:ae:f5:e0:bb:5a:e2:f4:16:21:10:9e:00:76:cd:
                    a7:d7:4a:50:a1:ae:1d:1b:cc:00:26:cb:3f:6f:a3:
                    ce:ea:1b:c8:0f:47:4a:da:a2:c5:52:dd:b8:8e:e5:
                    9a:2e:40:6c:09:53:e2:89:db:46:0c:27:9d:f9:f5:
                    99:a8:82:58:91:b6:6e:ae:e7:3a:92:ff:1c:bd:69:
                    f0:8d:a0:52:a1:b5:f4:09:d3:b5:2b:0f:2c:49:5a:
                    25:1f:f5:d2:b5:2a:01:d0:c1:9c:9f:0b:36:49:04:
                    61:57:48:fa:90:79:19:a0:2c:78:d1:4d:71:25:36:
                    ca:0f:16:58:2e:be:ef:02:82:a8:d4:b0:a0:ca:4c:
                    55:0a:f4:12:8a:69:54:a1:cb:0b:e6:b3:08:a9:d6:
                    9d:8b:19:a2:7b:f8:b9:e2:f2:7c:55:0a:15:6e:d2:
                    7e:58:96:f6:da:43:61:c3:77:66:79:ff:ed:e7:ca:
                    91:7c:0c:45:62:20:d0:49:c3:6e:e7:0a:6d:4e:9c:
                    a2:3f
                Exponent: 65537 (0x10001)
        X509v3 extensions:
            X509v3 Basic Constraints: 
                CA:FALSE
            X509v3 Subject Key Identifier: 
                50:72:B4:98:12:E1:A8:B6:0E:4E:F1:7C:30:B6:DE:2C:32:54:FD:A3
            X509v3 Authority Key Identifier: 
                keyid:F2:F6:D4:46:2E:D7:D3:40:6E:D3:EB:4C:7C:6D:0E:79:55:2F:95:13
                DirName:/CN=Easy-RSA CA
                serial:7E:C1:A2:36:DD:AF:00:51:CD:F4:10:8D:BF:D1:C0:67:CB:09:2C:7E

            X509v3 Extended Key Usage: 
                TLS Web Client Authentication
            X509v3 Key Usage: 
                Digital Signature
    Signature Algorithm: sha256WithRSAEncryption
         70:ff:43:ab:ec:d3:55:9d:00:f5:55:d1:07:c0:09:11:c7:05:
         f2:be:ab:c3:ce:9f:3b:c5:7b:4f:0e:17:ef:1a:98:f0:ef:ce:
         e7:ea:e4:d6:b3:51:17:c2:2e:dc:6f:9c:cb:4a:cc:0d:b2:f4:
         29:3d:99:61:cb:5d:85:dd:c8:01:69:9d:5e:50:e8:09:6e:06:
         b8:bc:64:39:8f:62:91:84:3f:9e:74:18:4a:b5:9e:40:de:c3:
         a3:4a:dc:fc:b4:7f:9b:b2:57:41:56:7d:f8:e8:ff:fd:ef:df:
         27:62:9b:fe:f6:0c:f5:0d:a0:c7:5e:5a:96:41:9d:9c:52:54:
         6d:59:b5:05:a0:13:20:42:c0:11:4c:ee:08:04:c5:e2:86:be:
         29:b4:4b:18:63:69:67:ac:17:23:16:2d:0d:85:83:7e:b1:af:
         44:9d:35:22:74:8f:56:d4:86:7a:cd:6b:29:cc:f8:69:57:e6:
         74:5a:ce:01:97:43:bb:30:c5:e2:2a:82:2e:d0:7d:8f:82:a5:
         6e:86:25:43:4a:28:16:00:0b:ad:39:4d:bb:5c:58:00:68:c2:
         f6:a4:38:5f:c3:a9:98:0e:f2:01:46:08:9d:b8:55:9e:96:c2:
         0b:da:a9:f5:f6:fa:ed:48:45:7f:e5:e8:c8:1c:79:b0:44:d1:
         18:20:52:fa
-----BEGIN CERTIFICATE-----
MIIDVTCCAj2gAwIBAgIQH31937CQvC3utXBIV/exmzANBgkqhkiG9w0BAQsFADAW
MRQwEgYDVQQDDAtFYXN5LVJTQSBDQTAeFw0yNTA2MTQyMDUyMzBaFw0yNzA5MTcy
MDUyMzBaMBIxEDAOBgNVBAMMB3BsYXllcjEwggEiMA0GCSqGSIb3DQEBAQUAA4IB
DwAwggEKAoIBAQCeNya2arMLSi11ImEtsX3J83FSmio2LEvQ5uJe9/9t0rffGalT
SOqNsds3DZH/AEqVXJ1Oyx+lQA0W4wOu9eC7WuL0FiEQngB2zafXSlChrh0bzAAm
yz9vo87qG8gPR0raosVS3biO5ZouQGwJU+KJ20YMJ5359ZmogliRtm6u5zqS/xy9
afCNoFKhtfQJ07UrDyxJWiUf9dK1KgHQwZyfCzZJBGFXSPqQeRmgLHjRTXElNsoP
Flguvu8CgqjUsKDKTFUK9BKKaVShywvmswip1p2LGaJ7+Lni8nxVChVu0n5Ylvba
Q2HDd2Z5/+3nypF8DEViINBJw27nCm1OnKI/AgMBAAGjgaIwgZ8wCQYDVR0TBAIw
ADAdBgNVHQ4EFgQUUHK0mBLhqLYOTvF8MLbeLDJU/aMwUQYDVR0jBEowSIAU8vbU
Ri7X00Bu0+tMfG0OeVUvlROhGqQYMBYxFDASBgNVBAMMC0Vhc3ktUlNBIENBghR+
waI23a8AUc30EI2/0cBnywksfjATBgNVHSUEDDAKBggrBgEFBQcDAjALBgNVHQ8E
BAMCB4AwDQYJKoZIhvcNAQELBQADggEBAHD/Q6vs01WdAPVV0QfACRHHBfK+q8PO
nzvFe08OF+8amPDvzufq5NazURfCLtxvnMtKzA2y9Ck9mWHLXYXdyAFpnV5Q6Alu
Bri8ZDmPYpGEP550GEq1nkDew6NK3Py0f5uyV0FWffjo//3v3ydim/72DPUNoMde
WpZBnZxSVG1ZtQWgEyBCwBFM7ggExeKGvim0SxhjaWesFyMWLQ2Fg36xr0SdNSJ0
j1bUhnrNaynM+GlX5nRazgGXQ7swxeIqgi7QfY+CpW6GJUNKKBYAC605TbtcWABo
wvakOF/DqZgO8gFGCJ24VZ6WwgvaqfX2+u1IRX/l6MgcebBE0RggUvo=
-----END CERTIFICATE-----
